target datalayout = "e-m:e-p270:32:32-p271:32:32-p272:64:64-i64:64-i128:128-f80:128-n8:16:32:64-S128"
target triple = "x86_64-unknown-linux-gnu"

%"class.std::_Function_base" = type { %"union.std::_Any_data", ptr }
%"union.std::_Any_data" = type { %"union.std::_Nocopy_types" }
%"union.std::_Nocopy_types" = type { { i64, i64 } }
%struct.anon = type { ptr, i64 }
%class.anon.15 = type { %"class.std::function.12" }
%"class.std::function.12" = type { %"class.std::_Function_base", ptr }

; Function Attrs: mustprogress nounwind uwtable
define linkonce_odr void @_ZNSt14_Function_baseD2Ev(ptr noundef nonnull align 8 dereferenceable(24) %this) unnamed_addr #7 comdat align 2 personality ptr @__gxx_personality_v0 {
entry:
  %this.addr = alloca ptr, align 8
  store ptr %this, ptr %this.addr, align 8
  %this1 = load ptr, ptr %this.addr, align 8
  %_M_manager = getelementptr inbounds %"class.std::_Function_base", ptr %this1, i32 0, i32 1
  %0 = load ptr, ptr %_M_manager, align 8
  %tobool = icmp ne ptr %0, null
  br i1 %tobool, label %if.then, label %if.end

if.then:                                          ; preds = %entry
  %_M_manager2 = getelementptr inbounds %"class.std::_Function_base", ptr %this1, i32 0, i32 1
  %1 = load ptr, ptr %_M_manager2, align 8
  %_M_functor = getelementptr inbounds %"class.std::_Function_base", ptr %this1, i32 0, i32 0
  %_M_functor3 = getelementptr inbounds %"class.std::_Function_base", ptr %this1, i32 0, i32 0
  %call = invoke noundef zeroext i1 %1(ptr noundef nonnull align 8 dereferenceable(16) %_M_functor, ptr noundef nonnull align 8 dereferenceable(16) %_M_functor3, i32 noundef 3)
          to label %invoke.cont unwind label %terminate.lpad

invoke.cont:                                      ; preds = %if.then
  br label %if.end

if.end:                                           ; preds = %invoke.cont, %entry
  ret void

terminate.lpad:                                   ; preds = %if.then
  %2 = landingpad { ptr, i32 }
          catch ptr null
  %3 = extractvalue { ptr, i32 } %2, 0
  call void @__clang_call_terminate(ptr %3) #17
  unreachable
}

; Function Attrs: mustprogress nounwind uwtable
define linkonce_odr void @_ZNSt8functionIFvN4absl12lts_202308028StatusOrINSt7__cxx1112basic_stringIcSt11char_traitsIcESaIcEEEEEEED2Ev(ptr noundef nonnull align 8 dereferenceable(32) %this) unnamed_addr #7 comdat align 2 {
entry:
  %this.addr = alloca ptr, align 8
  store ptr %this, ptr %this.addr, align 8
  %this1 = load ptr, ptr %this.addr, align 8
  call void @_ZNSt14_Function_baseD2Ev(ptr noundef nonnull align 8 dereferenceable(24) %this1) #3
  ret void
}

; Function Attrs: mustprogress nounwind uwtable
define internal void @"_ZZN9grpc_core17NativeDNSResolver9LookupTXTESt8functionIFvN4absl12lts_202308028StatusOrINSt7__cxx1112basic_stringIcSt11char_traitsIcESaIcEEEEEEESt17basic_string_viewIcS8_ENS_8DurationEP16grpc_pollset_setSF_EN3$_0D2Ev"(ptr noundef nonnull align 8 dereferenceable(32) %this) unnamed_addr #7 align 2 {
entry:
  %this.addr = alloca ptr, align 8
  store ptr %this, ptr %this.addr, align 8
  %this1 = load ptr, ptr %this.addr, align 8
  %0 = getelementptr inbounds %class.anon.15, ptr %this1, i32 0, i32 0
  call void @_ZNSt8functionIFvN4absl12lts_202308028StatusOrINSt7__cxx1112basic_stringIcSt11char_traitsIcESaIcEEEEEEED2Ev(ptr noundef nonnull align 8 dereferenceable(32) %0) #3
  ret void
}

; Function Attrs: mustprogress nounwind uwtable
define internal void @"_ZN4absl12lts_2023080222internal_any_invocable23RemoteManagerNontrivialIZN9grpc_core17NativeDNSResolver9LookupTXTESt8functionIFvNS0_8StatusOrINSt7__cxx1112basic_stringIcSt11char_traitsIcESaIcEEEEEEESt17basic_string_viewIcSA_ENS3_8DurationEP16grpc_pollset_setSH_E3$_0EEvNS1_14FunctionToCallEPNS1_15TypeErasedStateESO_"(i1 noundef zeroext %operation, ptr noundef %from, ptr noundef %to) #7 {
entry:
  %operation.addr = alloca i8, align 1
  %from.addr = alloca ptr, align 8
  %to.addr = alloca ptr, align 8
  %frombool = zext i1 %operation to i8
  store i8 %frombool, ptr %operation.addr, align 1
  store ptr %from, ptr %from.addr, align 8
  store ptr %to, ptr %to.addr, align 8
  %0 = load i8, ptr %operation.addr, align 1
  %tobool = trunc i8 %0 to i1
  switch i1 %tobool, label %sw.epilog [
    i1 false, label %sw.bb
    i1 true, label %sw.bb2
  ]

sw.bb:                                            ; preds = %entry
  %1 = load ptr, ptr %from.addr, align 8
  %target = getelementptr inbounds %struct.anon, ptr %1, i32 0, i32 0
  %2 = load ptr, ptr %target, align 16
  %3 = load ptr, ptr %to.addr, align 8
  %target1 = getelementptr inbounds %struct.anon, ptr %3, i32 0, i32 0
  store ptr %2, ptr %target1, align 16
  br label %do.end

sw.bb2:                                           ; preds = %entry
  %4 = load ptr, ptr %from.addr, align 8
  %target3 = getelementptr inbounds %struct.anon, ptr %4, i32 0, i32 0
  %5 = load ptr, ptr %target3, align 16
  %isnull = icmp eq ptr %5, null
  br i1 %isnull, label %delete.end, label %delete.notnull

delete.notnull:                                   ; preds = %sw.bb2
  call void @"_ZZN9grpc_core17NativeDNSResolver9LookupTXTESt8functionIFvN4absl12lts_202308028StatusOrINSt7__cxx1112basic_stringIcSt11char_traitsIcESaIcEEEEEEESt17basic_string_viewIcS8_ENS_8DurationEP16grpc_pollset_setSF_EN3$_0D2Ev"(ptr noundef nonnull align 8 dereferenceable(32) %5) #3
  call void @_ZdlPv(ptr noundef %5) #16
  br label %delete.end

delete.end:                                       ; preds = %delete.notnull, %sw.bb2
  br label %do.end

sw.epilog:                                        ; preds = %entry
  br label %do.body

do.body:                                          ; preds = %sw.epilog
  unreachable

do.cond:                                          ; No predecessors!
  br label %do.end

do.end:                                           ; preds = %do.cond, %delete.end, %sw.bb
  ret void
}